
uart.o:     file format elf32-littlearm

Disassembly of section .text:

00000000 <uart_init>:
   0:	e52db004 	push	{fp}		; (str fp, [sp, #-4]!)
   4:	e28db000 	add	fp, sp, #0	; 0x0
   8:	e3a02456 	mov	r2, #1442840576	; 0x56000000
   c:	e2822070 	add	r2, r2, #112	; 0x70
  10:	e3a03456 	mov	r3, #1442840576	; 0x56000000
  14:	e2833070 	add	r3, r3, #112	; 0x70
  18:	e5933000 	ldr	r3, [r3]
  1c:	e3c330f0 	bic	r3, r3, #240	; 0xf0
  20:	e5823000 	str	r3, [r2]
  24:	e3a02456 	mov	r2, #1442840576	; 0x56000000
  28:	e2822070 	add	r2, r2, #112	; 0x70
  2c:	e3a03456 	mov	r3, #1442840576	; 0x56000000
  30:	e2833070 	add	r3, r3, #112	; 0x70
  34:	e5933000 	ldr	r3, [r3]
  38:	e38330a0 	orr	r3, r3, #160	; 0xa0
  3c:	e5823000 	str	r3, [r2]
  40:	e3a02456 	mov	r2, #1442840576	; 0x56000000
  44:	e2822078 	add	r2, r2, #120	; 0x78
  48:	e3a03456 	mov	r3, #1442840576	; 0x56000000
  4c:	e2833078 	add	r3, r3, #120	; 0x78
  50:	e5933000 	ldr	r3, [r3]
  54:	e3c33004 	bic	r3, r3, #4	; 0x4
  58:	e5823000 	str	r3, [r2]
  5c:	e3a03205 	mov	r3, #1342177280	; 0x50000000
  60:	e2833028 	add	r3, r3, #40	; 0x28
  64:	e3a02002 	mov	r2, #2	; 0x2
  68:	e5832000 	str	r2, [r3]
  6c:	e3a02205 	mov	r2, #1342177280	; 0x50000000
  70:	e3a03205 	mov	r3, #1342177280	; 0x50000000
  74:	e5933000 	ldr	r3, [r3]
  78:	e3c33007 	bic	r3, r3, #7	; 0x7
  7c:	e5823000 	str	r3, [r2]
  80:	e3a02205 	mov	r2, #1342177280	; 0x50000000
  84:	e3a03205 	mov	r3, #1342177280	; 0x50000000
  88:	e5933000 	ldr	r3, [r3]
  8c:	e3833003 	orr	r3, r3, #3	; 0x3
  90:	e5823000 	str	r3, [r2]
  94:	e3a02245 	mov	r2, #1342177284	; 0x50000004
  98:	e3a03245 	mov	r3, #1342177284	; 0x50000004
  9c:	e5933000 	ldr	r3, [r3]
  a0:	e3c33b03 	bic	r3, r3, #3072	; 0xc00
  a4:	e3c3300f 	bic	r3, r3, #15	; 0xf
  a8:	e5823000 	str	r3, [r2]
  ac:	e3a02245 	mov	r2, #1342177284	; 0x50000004
  b0:	e3a03245 	mov	r3, #1342177284	; 0x50000004
  b4:	e5933000 	ldr	r3, [r3]
  b8:	e3833005 	orr	r3, r3, #5	; 0x5
  bc:	e5823000 	str	r3, [r2]
  c0:	e28bd000 	add	sp, fp, #0	; 0x0
  c4:	e8bd0800 	pop	{fp}
  c8:	e12fff1e 	bx	lr

000000cc <myputc>:
  cc:	e52db004 	push	{fp}		; (str fp, [sp, #-4]!)
  d0:	e28db000 	add	fp, sp, #0	; 0x0
  d4:	e24dd00c 	sub	sp, sp, #12	; 0xc
  d8:	e1a03000 	mov	r3, r0
  dc:	e54b3005 	strb	r3, [fp, #-5]
  e0:	e3a03205 	mov	r3, #1342177280	; 0x50000000
  e4:	e2833010 	add	r3, r3, #16	; 0x10
  e8:	e5933000 	ldr	r3, [r3]
  ec:	e2033002 	and	r3, r3, #2	; 0x2
  f0:	e3530000 	cmp	r3, #0	; 0x0
  f4:	0afffff9 	beq	e0 <myputc+0x14>
  f8:	e3a03205 	mov	r3, #1342177280	; 0x50000000
  fc:	e2833020 	add	r3, r3, #32	; 0x20
 100:	e55b2005 	ldrb	r2, [fp, #-5]
 104:	e5c32000 	strb	r2, [r3]
 108:	e28bd000 	add	sp, fp, #0	; 0x0
 10c:	e8bd0800 	pop	{fp}
 110:	e12fff1e 	bx	lr

00000114 <mygetc>:
 114:	e92d4800 	push	{fp, lr}
 118:	e28db004 	add	fp, sp, #4	; 0x4
 11c:	e24dd008 	sub	sp, sp, #8	; 0x8
 120:	ea000006 	b	140 <mygetc+0x2c>
 124:	e3a03205 	mov	r3, #1342177280	; 0x50000000
 128:	e2833024 	add	r3, r3, #36	; 0x24
 12c:	e5d33000 	ldrb	r3, [r3]
 130:	e54b3005 	strb	r3, [fp, #-5]
 134:	e55b3005 	ldrb	r3, [fp, #-5]
 138:	e1a00003 	mov	r0, r3
 13c:	ebfffffe 	bl	cc <myputc>
 140:	e3a03205 	mov	r3, #1342177280	; 0x50000000
 144:	e2833010 	add	r3, r3, #16	; 0x10
 148:	e5933000 	ldr	r3, [r3]
 14c:	e2033001 	and	r3, r3, #1	; 0x1
 150:	e20330ff 	and	r3, r3, #255	; 0xff
 154:	e3530000 	cmp	r3, #0	; 0x0
 158:	1afffff1 	bne	124 <mygetc+0x10>
 15c:	e24bd004 	sub	sp, fp, #4	; 0x4
 160:	e8bd4800 	pop	{fp, lr}
 164:	e12fff1e 	bx	lr

00000168 <myputs>:
 168:	e92d4800 	push	{fp, lr}
 16c:	e28db004 	add	fp, sp, #4	; 0x4
 170:	e24dd008 	sub	sp, sp, #8	; 0x8
 174:	e50b0008 	str	r0, [fp, #-8]
 178:	ea000006 	b	198 <myputs+0x30>
 17c:	e51b3008 	ldr	r3, [fp, #-8]
 180:	e5d33000 	ldrb	r3, [r3]
 184:	e1a00003 	mov	r0, r3
 188:	ebfffffe 	bl	cc <myputc>
 18c:	e51b3008 	ldr	r3, [fp, #-8]
 190:	e2833001 	add	r3, r3, #1	; 0x1
 194:	e50b3008 	str	r3, [fp, #-8]
 198:	e51b3008 	ldr	r3, [fp, #-8]
 19c:	e3530000 	cmp	r3, #0	; 0x0
 1a0:	1afffff5 	bne	17c <myputs+0x14>
 1a4:	e24bd004 	sub	sp, fp, #4	; 0x4
 1a8:	e8bd4800 	pop	{fp, lr}
 1ac:	e12fff1e 	bx	lr