
sdram.elf:     file format elf32-littlearm

Disassembly of section .text:

00000000 <_start>:
.global _start

_start:

	/* 关闭看门狗 */
	ldr r0, =0x53000000
   0:	e3a00453 	mov	r0, #1392508928	; 0x53000000
	ldr r1, =0
   4:	e3a01000 	mov	r1, #0	; 0x0
	str r1, [r0]
   8:	e5801000 	str	r1, [r0]

	/* 设置MPLL, FCLK : HCLK : PCLK = 400m : 100m : 50m */
	/* LOCKTIME(0x4C000000) = 0xFFFFFFFF */
	ldr r0, =0x4C000000
   c:	e3a00313 	mov	r0, #1275068416	; 0x4c000000
	ldr r1, =0xFFFFFFFF
  10:	e3e01000 	mvn	r1, #0	; 0x0
	str r1, [r0]
  14:	e5801000 	str	r1, [r0]

	/* CLKDIVN(0x4C000014) = 0X5, tFCLK:tHCLK:tPCLK = 1:4:8  */
	ldr r0, =0x4C000014
  18:	e59f0088 	ldr	r0, [pc, #136]	; a8 <halt+0x4>
	ldr r1, =0x5
  1c:	e3a01005 	mov	r1, #5	; 0x5
	str r1, [r0]
  20:	e5801000 	str	r1, [r0]

	/* 设置CPU工作于异步模式 */
	mrc p15,0,r0,c1,c0,0
  24:	ee110f10 	mrc	15, 0, r0, cr1, cr0, {0}
	orr r0,r0,#0xc0000000   //R1_nF:OR:R1_iA
  28:	e3800103 	orr	r0, r0, #-1073741824	; 0xc0000000
	mcr p15,0,r0,c1,c0,0
  2c:	ee010f10 	mcr	15, 0, r0, cr1, cr0, {0}
	 *  m = MDIV+8 = 92+8=100
	 *  p = PDIV+2 = 1+2 = 3
	 *  s = SDIV = 1
	 *  FCLK = 2*m*Fin/(p*2^s) = 2*100*12/(3*2^1)=400M
	 */
	ldr r0, =0x4C000004
  30:	e59f0074 	ldr	r0, [pc, #116]	; ac <halt+0x8>
	ldr r1, =(92<<12)|(1<<4)|(1<<0)
  34:	e59f1074 	ldr	r1, [pc, #116]	; b0 <halt+0xc>
	str r1, [r0]
  38:	e5801000 	str	r1, [r0]
	/* 分辨是nor/nand启动
	 * 写0到0地址, 再读出来
	 * 如果得到0, 表示0地址上的内容被修改了, 它对应ram, 这就是nand启动
	 * 否则就是nor启动
	 */
	mov r1, #0
  3c:	e3a01000 	mov	r1, #0	; 0x0
	ldr r0, [r1] /* 读出原来的值备份 */
  40:	e5910000 	ldr	r0, [r1]
	str r1, [r1] /* 0->[0] */ 
  44:	e5811000 	str	r1, [r1]
	ldr r2, [r1] /* r2=[0] */
  48:	e5912000 	ldr	r2, [r1]
	cmp r1, r2   /* r1==r2? 如果相等表示是NAND启动 */
  4c:	e1510002 	cmp	r1, r2
	ldr sp, =0x40000000+4096 /* 先假设是nor启动 */
  50:	e59fd05c 	ldr	sp, [pc, #92]	; b4 <halt+0x10>
	moveq sp, #4096  /* nand启动 */
  54:	03a0da01 	moveq	sp, #4096	; 0x1000
	streq r0, [r1]   /* 恢复原来的值 */
  58:	05810000 	streq	r0, [r1]

	bl sdram_init	
  5c:	eb00010d 	bl	498 <sdram_init>

	/* 重定位data段 */
	ldr r1, =data_load_addr  /* data段在bin文件中的地址, 加载地址 */
  60:	e59f1050 	ldr	r1, [pc, #80]	; b8 <halt+0x14>
	ldr r2, =data_start 	 /* data段在重定位地址, 运行时的地址 */
  64:	e59f2050 	ldr	r2, [pc, #80]	; bc <halt+0x18>
	ldr r3, =data_end 	     /* data段结束地址 */
  68:	e59f3050 	ldr	r3, [pc, #80]	; c0 <halt+0x1c>

0000006c <cpy>:

cpy:
	ldr r4, [r1]
  6c:	e5914000 	.word	0xe5914000
	str r4, [r2]
  70:	e5824000 	.word	0xe5824000
	add r1, r1, #4
  74:	e2811004 	.word	0xe2811004
	add r2, r2, #4
  78:	e2822004 	.word	0xe2822004
	cmp r2, r3
  7c:	e1520003 	.word	0xe1520003
	ble cpy
  80:	dafffff9 	.word	0xdafffff9


	/* 清除BSS段 */
	ldr r1, =bss_start
  84:	e59f1038 	.word	0xe59f1038
	ldr r2, =bss_end
  88:	e59f2038 	.word	0xe59f2038
	mov r3, #0
  8c:	e3a03000 	.word	0xe3a03000

00000090 <clean>:
clean:
	str r3, [r1]
  90:	e5813000 	.word	0xe5813000
	add r1, r1, #4
  94:	e2811004 	.word	0xe2811004
	cmp r1, r2
  98:	e1510002 	.word	0xe1510002
	ble clean
  9c:	dafffffb 	.word	0xdafffffb

	bl main
  a0:	eb000151 	.word	0xeb000151

000000a4 <halt>:

halt:
	b halt
  a4:	eafffffe 	.word	0xeafffffe
  a8:	4c000014 	.word	0x4c000014
  ac:	4c000004 	.word	0x4c000004
  b0:	0005c011 	.word	0x0005c011
  b4:	40001000 	.word	0x40001000
  b8:	30000800 	.word	0x30000800
  bc:	30000000 	.word	0x30000000
  c0:	30000002 	.word	0x30000002
  c4:	30000004 	.word	0x30000004
  c8:	3000000c 	.word	0x3000000c

000000cc <delay>:

#include "s3c2440_soc.h"

void delay(volatile int d)
{
  cc:	e52db004 	push	{fp}		; (str fp, [sp, #-4]!)
  d0:	e28db000 	add	fp, sp, #0	; 0x0
  d4:	e24dd00c 	sub	sp, sp, #12	; 0xc
  d8:	e50b0008 	str	r0, [fp, #-8]
	while (d--);
  dc:	e51b2008 	ldr	r2, [fp, #-8]
  e0:	e3520000 	cmp	r2, #0	; 0x0
  e4:	03a03000 	moveq	r3, #0	; 0x0
  e8:	13a03001 	movne	r3, #1	; 0x1
  ec:	e20310ff 	and	r1, r3, #255	; 0xff
  f0:	e2423001 	sub	r3, r2, #1	; 0x1
  f4:	e50b3008 	str	r3, [fp, #-8]
  f8:	e3510000 	cmp	r1, #0	; 0x0
  fc:	1afffff6 	bne	dc <delay+0x10>
}
 100:	e28bd000 	add	sp, fp, #0	; 0x0
 104:	e8bd0800 	pop	{fp}
 108:	e12fff1e 	bx	lr

0000010c <led_test>:

int led_test(void)
{
 10c:	e92d4800 	push	{fp, lr}
 110:	e28db004 	add	fp, sp, #4	; 0x4
 114:	e24dd008 	sub	sp, sp, #8	; 0x8
	int val = 0;  /* val: 0b000, 0b111 */
 118:	e3a03000 	mov	r3, #0	; 0x0
 11c:	e50b300c 	str	r3, [fp, #-12]
	int tmp;

	/* 设置GPFCON让GPF4/5/6配置为输出引脚 */
	GPFCON &= ~((3<<8) | (3<<10) | (3<<12));
 120:	e3a02456 	mov	r2, #1442840576	; 0x56000000
 124:	e2822050 	add	r2, r2, #80	; 0x50
 128:	e3a03456 	mov	r3, #1442840576	; 0x56000000
 12c:	e2833050 	add	r3, r3, #80	; 0x50
 130:	e5933000 	ldr	r3, [r3]
 134:	e3c33c3f 	bic	r3, r3, #16128	; 0x3f00
 138:	e5823000 	str	r3, [r2]
	GPFCON |=  ((1<<8) | (1<<10) | (1<<12));
 13c:	e3a02456 	mov	r2, #1442840576	; 0x56000000
 140:	e2822050 	add	r2, r2, #80	; 0x50
 144:	e3a03456 	mov	r3, #1442840576	; 0x56000000
 148:	e2833050 	add	r3, r3, #80	; 0x50
 14c:	e5933000 	ldr	r3, [r3]
 150:	e3833c15 	orr	r3, r3, #5376	; 0x1500
 154:	e5823000 	str	r3, [r2]

	/* 循环点亮 */
	while (1)
	{
		tmp = ~val;
 158:	e51b300c 	ldr	r3, [fp, #-12]
 15c:	e1e03003 	mvn	r3, r3
 160:	e50b3008 	str	r3, [fp, #-8]
		tmp &= 7;
 164:	e51b3008 	ldr	r3, [fp, #-8]
 168:	e2033007 	and	r3, r3, #7	; 0x7
 16c:	e50b3008 	str	r3, [fp, #-8]
		GPFDAT &= ~(7<<4);
 170:	e3a02456 	mov	r2, #1442840576	; 0x56000000
 174:	e2822054 	add	r2, r2, #84	; 0x54
 178:	e3a03456 	mov	r3, #1442840576	; 0x56000000
 17c:	e2833054 	add	r3, r3, #84	; 0x54
 180:	e5933000 	ldr	r3, [r3]
 184:	e3c33070 	bic	r3, r3, #112	; 0x70
 188:	e5823000 	str	r3, [r2]
		GPFDAT |= (tmp<<4);
 18c:	e3a02456 	mov	r2, #1442840576	; 0x56000000
 190:	e2822054 	add	r2, r2, #84	; 0x54
 194:	e3a03456 	mov	r3, #1442840576	; 0x56000000
 198:	e2833054 	add	r3, r3, #84	; 0x54
 19c:	e5931000 	ldr	r1, [r3]
 1a0:	e51b3008 	ldr	r3, [fp, #-8]
 1a4:	e1a03203 	lsl	r3, r3, #4
 1a8:	e1813003 	orr	r3, r1, r3
 1ac:	e5823000 	str	r3, [r2]
		delay(100000);
 1b0:	e3a00b61 	mov	r0, #99328	; 0x18400
 1b4:	e2800e2a 	add	r0, r0, #672	; 0x2a0
 1b8:	ebffffc3 	bl	cc <delay>
		val++;
 1bc:	e51b300c 	ldr	r3, [fp, #-12]
 1c0:	e2833001 	add	r3, r3, #1	; 0x1
 1c4:	e50b300c 	str	r3, [fp, #-12]
		if (val == 8)
 1c8:	e51b300c 	ldr	r3, [fp, #-12]
 1cc:	e3530008 	cmp	r3, #8	; 0x8
 1d0:	1affffe0 	bne	158 <led_test+0x4c>
			val =0;
 1d4:	e3a03000 	mov	r3, #0	; 0x0
 1d8:	e50b300c 	str	r3, [fp, #-12]
 1dc:	eaffffdd 	b	158 <led_test+0x4c>

000001e0 <uart0_init>:
#include "s3c2440_soc.h"


/* 115200,8n1 */
void uart0_init()
{
 1e0:	e52db004 	push	{fp}		; (str fp, [sp, #-4]!)
 1e4:	e28db000 	add	fp, sp, #0	; 0x0
	/* 设置引脚用于串口 */
	/* GPH2,3用于TxD0, RxD0 */
	GPHCON &= ~((3<<4) | (3<<6));
 1e8:	e3a02456 	mov	r2, #1442840576	; 0x56000000
 1ec:	e2822070 	add	r2, r2, #112	; 0x70
 1f0:	e3a03456 	mov	r3, #1442840576	; 0x56000000
 1f4:	e2833070 	add	r3, r3, #112	; 0x70
 1f8:	e5933000 	ldr	r3, [r3]
 1fc:	e3c330f0 	bic	r3, r3, #240	; 0xf0
 200:	e5823000 	str	r3, [r2]
	GPHCON |= ((2<<4) | (2<<6));
 204:	e3a02456 	mov	r2, #1442840576	; 0x56000000
 208:	e2822070 	add	r2, r2, #112	; 0x70
 20c:	e3a03456 	mov	r3, #1442840576	; 0x56000000
 210:	e2833070 	add	r3, r3, #112	; 0x70
 214:	e5933000 	ldr	r3, [r3]
 218:	e38330a0 	orr	r3, r3, #160	; 0xa0
 21c:	e5823000 	str	r3, [r2]

	GPHUP &= ~((1<<2) | (1<<3));  /* 使能内部上拉 */
 220:	e3a02456 	mov	r2, #1442840576	; 0x56000000
 224:	e2822078 	add	r2, r2, #120	; 0x78
 228:	e3a03456 	mov	r3, #1442840576	; 0x56000000
 22c:	e2833078 	add	r3, r3, #120	; 0x78
 230:	e5933000 	ldr	r3, [r3]
 234:	e3c3300c 	bic	r3, r3, #12	; 0xc
 238:	e5823000 	str	r3, [r2]
	/* 设置波特率 */
	/* UBRDIVn = (int)( UART clock / ( buad rate x 16) ) C1
	 *  UART clock = 50M
	 *  UBRDIVn = (int)( 50000000 / ( 115200 x 16) ) C1 = 26
	 */
	UCON0 = 0x00000005; /* PCLK,中断/查询模式 */
 23c:	e3a02245 	mov	r2, #1342177284	; 0x50000004
 240:	e3a03005 	mov	r3, #5	; 0x5
 244:	e5823000 	str	r3, [r2]
	UBRDIV0 = 26;
 248:	e3a03205 	mov	r3, #1342177280	; 0x50000000
 24c:	e2833028 	add	r3, r3, #40	; 0x28
 250:	e3a0201a 	mov	r2, #26	; 0x1a
 254:	e5832000 	str	r2, [r3]

	/* 设置数据格式 */
	ULCON0 = 0x00000003; /* 8n1: 8个数据位, 无较验位, 1个停止位 */
 258:	e3a02205 	mov	r2, #1342177280	; 0x50000000
 25c:	e3a03003 	mov	r3, #3	; 0x3
 260:	e5823000 	str	r3, [r2]

	/*  */

}
 264:	e28bd000 	add	sp, fp, #0	; 0x0
 268:	e8bd0800 	pop	{fp}
 26c:	e12fff1e 	bx	lr

00000270 <putchar>:
int putchar(int c)
{
	/* UTRSTAT0 */
	/* UTXH0 */

	while (!(UTRSTAT0 & (1<<2)));
 270:	e52db004 	push	{fp}		; (str fp, [sp, #-4]!)
 274:	e28db000 	add	fp, sp, #0	; 0x0
 278:	e24dd00c 	sub	sp, sp, #12	; 0xc
 27c:	e50b0008 	str	r0, [fp, #-8]
 280:	e3a03205 	mov	r3, #1342177280	; 0x50000000
 284:	e2833010 	add	r3, r3, #16	; 0x10
 288:	e5933000 	ldr	r3, [r3]
 28c:	e2033004 	and	r3, r3, #4	; 0x4
 290:	e3530000 	cmp	r3, #0	; 0x0
 294:	0afffff9 	beq	280 <putchar+0x10>
	UTXH0 = (unsigned char)c;
 298:	e3a02205 	mov	r2, #1342177280	; 0x50000000
 29c:	e2822020 	add	r2, r2, #32	; 0x20
 2a0:	e51b3008 	ldr	r3, [fp, #-8]
 2a4:	e20330ff 	and	r3, r3, #255	; 0xff
 2a8:	e5c23000 	strb	r3, [r2]
	
}
 2ac:	e28bd000 	add	sp, fp, #0	; 0x0
 2b0:	e8bd0800 	pop	{fp}
 2b4:	e12fff1e 	bx	lr

000002b8 <getchar>:

int getchar(void)
{
 2b8:	e52db004 	push	{fp}		; (str fp, [sp, #-4]!)
 2bc:	e28db000 	add	fp, sp, #0	; 0x0
	while (!(UTRSTAT0 & (1<<0)));
 2c0:	e3a03205 	mov	r3, #1342177280	; 0x50000000
 2c4:	e2833010 	add	r3, r3, #16	; 0x10
 2c8:	e5933000 	ldr	r3, [r3]
 2cc:	e2033001 	and	r3, r3, #1	; 0x1
 2d0:	e3530000 	cmp	r3, #0	; 0x0
 2d4:	0afffff9 	beq	2c0 <getchar+0x8>
	return URXH0;
 2d8:	e3a03205 	mov	r3, #1342177280	; 0x50000000
 2dc:	e2833024 	add	r3, r3, #36	; 0x24
 2e0:	e5d33000 	ldrb	r3, [r3]
 2e4:	e20330ff 	and	r3, r3, #255	; 0xff
}
 2e8:	e1a00003 	mov	r0, r3
 2ec:	e28bd000 	add	sp, fp, #0	; 0x0
 2f0:	e8bd0800 	pop	{fp}
 2f4:	e12fff1e 	bx	lr

000002f8 <puts>:

int puts(const char *s)
{
	while (*s)
	{
		putchar(*s);
 2f8:	e92d4800 	push	{fp, lr}
 2fc:	e28db004 	add	fp, sp, #4	; 0x4
 300:	e24dd008 	sub	sp, sp, #8	; 0x8
 304:	e50b0008 	str	r0, [fp, #-8]
 308:	ea000006 	b	328 <puts+0x30>
 30c:	e51b3008 	ldr	r3, [fp, #-8]
 310:	e5d33000 	ldrb	r3, [r3]
 314:	e1a00003 	mov	r0, r3
 318:	ebffffd4 	bl	270 <putchar>
		s++;
 31c:	e51b3008 	ldr	r3, [fp, #-8]
 320:	e2833001 	add	r3, r3, #1	; 0x1
 324:	e50b3008 	str	r3, [fp, #-8]
	return URXH0;
}

int puts(const char *s)
{
	while (*s)
 328:	e51b3008 	ldr	r3, [fp, #-8]
 32c:	e5d33000 	ldrb	r3, [r3]
 330:	e3530000 	cmp	r3, #0	; 0x0
 334:	1afffff4 	bne	30c <puts+0x14>
	{
		putchar(*s);
		s++;
	}
}
 338:	e24bd004 	sub	sp, fp, #4	; 0x4
 33c:	e8bd4800 	pop	{fp, lr}
 340:	e12fff1e 	bx	lr

00000344 <printHex>:

/* 0xABCDEF12 */
void printHex(unsigned int val)
{
 344:	e92d4800 	push	{fp, lr}
 348:	e28db004 	add	fp, sp, #4	; 0x4
 34c:	e24dd018 	sub	sp, sp, #24	; 0x18
 350:	e50b0018 	str	r0, [fp, #-24]
	int i;
	unsigned char arr[8];

	/* 先取出每一位的值 */
	for (i = 0; i < 8; i++)
 354:	e3a03000 	mov	r3, #0	; 0x0
 358:	e50b3008 	str	r3, [fp, #-8]
 35c:	ea000010 	b	3a4 <printHex+0x60>
	{
		arr[i] = val & 0xf;
 360:	e51b0008 	ldr	r0, [fp, #-8]
 364:	e51b3018 	ldr	r3, [fp, #-24]
 368:	e20330ff 	and	r3, r3, #255	; 0xff
 36c:	e1a02003 	mov	r2, r3
 370:	e202200f 	and	r2, r2, #15	; 0xf
 374:	e3e0100b 	mvn	r1, #11	; 0xb
 378:	e24bc004 	sub	ip, fp, #4	; 0x4
 37c:	e08c3000 	add	r3, ip, r0
 380:	e0831001 	add	r1, r3, r1
 384:	e1a03002 	mov	r3, r2
 388:	e5c13000 	strb	r3, [r1]
		val >>= 4;   /* arr[0] = 2, arr[1] = 1, arr[2] = 0xF */
 38c:	e51b3018 	ldr	r3, [fp, #-24]
 390:	e1a03223 	lsr	r3, r3, #4
 394:	e50b3018 	str	r3, [fp, #-24]
{
	int i;
	unsigned char arr[8];

	/* 先取出每一位的值 */
	for (i = 0; i < 8; i++)
 398:	e51b3008 	ldr	r3, [fp, #-8]
 39c:	e2833001 	add	r3, r3, #1	; 0x1
 3a0:	e50b3008 	str	r3, [fp, #-8]
 3a4:	e51b3008 	ldr	r3, [fp, #-8]
 3a8:	e3530007 	cmp	r3, #7	; 0x7
 3ac:	daffffeb 	ble	360 <printHex+0x1c>
		arr[i] = val & 0xf;
		val >>= 4;   /* arr[0] = 2, arr[1] = 1, arr[2] = 0xF */
	}

	/* 打印 */
	puts("0x");
 3b0:	e59f00dc 	ldr	r0, [pc, #220]	; 494 <printHex+0x150>
 3b4:	ebffffcf 	bl	2f8 <puts>
	for (i = 7; i >=0; i--)
 3b8:	e3a03007 	mov	r3, #7	; 0x7
 3bc:	e50b3008 	str	r3, [fp, #-8]
 3c0:	ea00002d 	b	47c <printHex+0x138>
	{
		if (arr[i] >= 0 && arr[i] <= 9)
 3c4:	e51b3008 	ldr	r3, [fp, #-8]
 3c8:	e3e0200b 	mvn	r2, #11	; 0xb
 3cc:	e24b1004 	sub	r1, fp, #4	; 0x4
 3d0:	e0813003 	add	r3, r1, r3
 3d4:	e0833002 	add	r3, r3, r2
 3d8:	e5d33000 	ldrb	r3, [r3]
 3dc:	e3530009 	cmp	r3, #9	; 0x9
 3e0:	8a000009 	bhi	40c <printHex+0xc8>
			putchar(arr[i] + '0');
 3e4:	e51b3008 	ldr	r3, [fp, #-8]
 3e8:	e3e0200b 	mvn	r2, #11	; 0xb
 3ec:	e24bc004 	sub	ip, fp, #4	; 0x4
 3f0:	e08c3003 	add	r3, ip, r3
 3f4:	e0833002 	add	r3, r3, r2
 3f8:	e5d33000 	ldrb	r3, [r3]
 3fc:	e2833030 	add	r3, r3, #48	; 0x30
 400:	e1a00003 	mov	r0, r3
 404:	ebffff99 	bl	270 <putchar>
 408:	ea000018 	b	470 <printHex+0x12c>
		else if(arr[i] >= 0xA && arr[i] <= 0xF)
 40c:	e51b3008 	ldr	r3, [fp, #-8]
 410:	e3e0200b 	mvn	r2, #11	; 0xb
 414:	e24b1004 	sub	r1, fp, #4	; 0x4
 418:	e0813003 	add	r3, r1, r3
 41c:	e0833002 	add	r3, r3, r2
 420:	e5d33000 	ldrb	r3, [r3]
 424:	e3530009 	cmp	r3, #9	; 0x9
 428:	9a000010 	bls	470 <printHex+0x12c>
 42c:	e51b3008 	ldr	r3, [fp, #-8]
 430:	e3e0200b 	mvn	r2, #11	; 0xb
 434:	e24bc004 	sub	ip, fp, #4	; 0x4
 438:	e08c3003 	add	r3, ip, r3
 43c:	e0833002 	add	r3, r3, r2
 440:	e5d33000 	ldrb	r3, [r3]
 444:	e353000f 	cmp	r3, #15	; 0xf
 448:	8a000008 	bhi	470 <printHex+0x12c>
			putchar(arr[i] - 0xA + 'A');
 44c:	e51b3008 	ldr	r3, [fp, #-8]
 450:	e3e0200b 	mvn	r2, #11	; 0xb
 454:	e24b1004 	sub	r1, fp, #4	; 0x4
 458:	e0813003 	add	r3, r1, r3
 45c:	e0833002 	add	r3, r3, r2
 460:	e5d33000 	ldrb	r3, [r3]
 464:	e2833037 	add	r3, r3, #55	; 0x37
 468:	e1a00003 	mov	r0, r3
 46c:	ebffff7f 	bl	270 <putchar>
		val >>= 4;   /* arr[0] = 2, arr[1] = 1, arr[2] = 0xF */
	}

	/* 打印 */
	puts("0x");
	for (i = 7; i >=0; i--)
 470:	e51b3008 	ldr	r3, [fp, #-8]
 474:	e2433001 	sub	r3, r3, #1	; 0x1
 478:	e50b3008 	str	r3, [fp, #-8]
 47c:	e51b3008 	ldr	r3, [fp, #-8]
 480:	e3530000 	cmp	r3, #0	; 0x0
 484:	aaffffce 	bge	3c4 <printHex+0x80>
		if (arr[i] >= 0 && arr[i] <= 9)
			putchar(arr[i] + '0');
		else if(arr[i] >= 0xA && arr[i] <= 0xF)
			putchar(arr[i] - 0xA + 'A');
	}
}
 488:	e24bd004 	sub	sp, fp, #4	; 0x4
 48c:	e8bd4800 	pop	{fp, lr}
 490:	e12fff1e 	bx	lr
 494:	000006cc 	.word	0x000006cc

00000498 <sdram_init>:

#include "s3c2440_soc.h"

void sdram_init(void)
{
 498:	e52db004 	push	{fp}		; (str fp, [sp, #-4]!)
 49c:	e28db000 	add	fp, sp, #0	; 0x0
	BWSCON = 0x22000000;
 4a0:	e3a02312 	mov	r2, #1207959552	; 0x48000000
 4a4:	e3a03422 	mov	r3, #570425344	; 0x22000000
 4a8:	e5823000 	str	r3, [r2]

	BANKCON6 = 0x18001;
 4ac:	e3a02312 	mov	r2, #1207959552	; 0x48000000
 4b0:	e282201c 	add	r2, r2, #28	; 0x1c
 4b4:	e3a03906 	mov	r3, #98304	; 0x18000
 4b8:	e2833001 	add	r3, r3, #1	; 0x1
 4bc:	e5823000 	str	r3, [r2]
	BANKCON7 = 0x18001;
 4c0:	e3a02312 	mov	r2, #1207959552	; 0x48000000
 4c4:	e2822020 	add	r2, r2, #32	; 0x20
 4c8:	e3a03906 	mov	r3, #98304	; 0x18000
 4cc:	e2833001 	add	r3, r3, #1	; 0x1
 4d0:	e5823000 	str	r3, [r2]

	REFRESH  = 0x8404f5;
 4d4:	e3a02312 	mov	r2, #1207959552	; 0x48000000
 4d8:	e2822024 	add	r2, r2, #36	; 0x24
 4dc:	e3a03721 	mov	r3, #8650752	; 0x840000
 4e0:	e2833e4f 	add	r3, r3, #1264	; 0x4f0
 4e4:	e2833005 	add	r3, r3, #5	; 0x5
 4e8:	e5823000 	str	r3, [r2]

	BANKSIZE = 0xb1;
 4ec:	e3a03312 	mov	r3, #1207959552	; 0x48000000
 4f0:	e2833028 	add	r3, r3, #40	; 0x28
 4f4:	e3a020b1 	mov	r2, #177	; 0xb1
 4f8:	e5832000 	str	r2, [r3]

	MRSRB6   = 0x20;
 4fc:	e3a03312 	mov	r3, #1207959552	; 0x48000000
 500:	e283302c 	add	r3, r3, #44	; 0x2c
 504:	e3a02020 	mov	r2, #32	; 0x20
 508:	e5832000 	str	r2, [r3]
	MRSRB7   = 0x20;
 50c:	e3a03312 	mov	r3, #1207959552	; 0x48000000
 510:	e2833030 	add	r3, r3, #48	; 0x30
 514:	e3a02020 	mov	r2, #32	; 0x20
 518:	e5832000 	str	r2, [r3]
}
 51c:	e28bd000 	add	sp, fp, #0	; 0x0
 520:	e8bd0800 	pop	{fp}
 524:	e12fff1e 	bx	lr

00000528 <sdram_test>:

int sdram_test(void)
{
 528:	e52db004 	push	{fp}		; (str fp, [sp, #-4]!)
 52c:	e28db000 	add	fp, sp, #0	; 0x0
 530:	e24dd014 	sub	sp, sp, #20	; 0x14
	volatile unsigned char *p = (volatile unsigned char *)0x30000000;
 534:	e3a03203 	mov	r3, #805306368	; 0x30000000
 538:	e50b300c 	str	r3, [fp, #-12]
	int i;

	// write sdram
	for (i = 0; i < 1000; i++)
 53c:	e3a03000 	mov	r3, #0	; 0x0
 540:	e50b3008 	str	r3, [fp, #-8]
 544:	ea000007 	b	568 <sdram_test+0x40>
		p[i] = 0x55;
 548:	e51b2008 	ldr	r2, [fp, #-8]
 54c:	e51b300c 	ldr	r3, [fp, #-12]
 550:	e0832002 	add	r2, r3, r2
 554:	e3a03055 	mov	r3, #85	; 0x55
 558:	e5c23000 	strb	r3, [r2]
{
	volatile unsigned char *p = (volatile unsigned char *)0x30000000;
	int i;

	// write sdram
	for (i = 0; i < 1000; i++)
 55c:	e51b3008 	ldr	r3, [fp, #-8]
 560:	e2833001 	add	r3, r3, #1	; 0x1
 564:	e50b3008 	str	r3, [fp, #-8]
 568:	e51b2008 	ldr	r2, [fp, #-8]
 56c:	e3a03ff9 	mov	r3, #996	; 0x3e4
 570:	e2833003 	add	r3, r3, #3	; 0x3
 574:	e1520003 	cmp	r2, r3
 578:	dafffff2 	ble	548 <sdram_test+0x20>
		p[i] = 0x55;

	// read sdram
	for (i = 0; i < 1000; i++)
 57c:	e3a03000 	mov	r3, #0	; 0x0
 580:	e50b3008 	str	r3, [fp, #-8]
 584:	ea00000c 	b	5bc <sdram_test+0x94>
		if (p[i] != 0x55)
 588:	e51b2008 	ldr	r2, [fp, #-8]
 58c:	e51b300c 	ldr	r3, [fp, #-12]
 590:	e0833002 	add	r3, r3, r2
 594:	e5d33000 	ldrb	r3, [r3]
 598:	e20330ff 	and	r3, r3, #255	; 0xff
 59c:	e3530055 	cmp	r3, #85	; 0x55
 5a0:	0a000002 	beq	5b0 <sdram_test+0x88>
			return -1;
 5a4:	e3e03000 	mvn	r3, #0	; 0x0
 5a8:	e50b3010 	str	r3, [fp, #-16]
 5ac:	ea000009 	b	5d8 <sdram_test+0xb0>
	// write sdram
	for (i = 0; i < 1000; i++)
		p[i] = 0x55;

	// read sdram
	for (i = 0; i < 1000; i++)
 5b0:	e51b3008 	ldr	r3, [fp, #-8]
 5b4:	e2833001 	add	r3, r3, #1	; 0x1
 5b8:	e50b3008 	str	r3, [fp, #-8]
 5bc:	e51b2008 	ldr	r2, [fp, #-8]
 5c0:	e3a03ff9 	mov	r3, #996	; 0x3e4
 5c4:	e2833003 	add	r3, r3, #3	; 0x3
 5c8:	e1520003 	cmp	r2, r3
 5cc:	daffffed 	ble	588 <sdram_test+0x60>
		if (p[i] != 0x55)
			return -1;

	return 0;
 5d0:	e3a03000 	mov	r3, #0	; 0x0
 5d4:	e50b3010 	str	r3, [fp, #-16]
 5d8:	e51b3010 	ldr	r3, [fp, #-16]
}
 5dc:	e1a00003 	mov	r0, r3
 5e0:	e28bd000 	add	sp, fp, #0	; 0x0
 5e4:	e8bd0800 	pop	{fp}
 5e8:	e12fff1e 	bx	lr

000005ec <main>:
const char g_Char2 = 'B';
int g_A = 0;
int g_B;

int main(void)
{
 5ec:	e92d4800 	push	{fp, lr}
 5f0:	e28db004 	add	fp, sp, #4	; 0x4
	uart0_init();
 5f4:	ebfffef9 	bl	1e0 <uart0_init>

	puts("\n\rg_A = ");
 5f8:	e59f00b0 	ldr	r0, [pc, #176]	; 6b0 <main+0xc4>
 5fc:	ebffff3d 	bl	2f8 <puts>
	printHex(g_A);
 600:	e59f30ac 	ldr	r3, [pc, #172]	; 6b4 <main+0xc8>
 604:	e5933000 	ldr	r3, [r3]
 608:	e1a00003 	mov	r0, r3
 60c:	ebffff4c 	bl	344 <printHex>
	puts("\n\r");
 610:	e59f00a0 	ldr	r0, [pc, #160]	; 6b8 <main+0xcc>
 614:	ebffff37 	bl	2f8 <puts>

	puts("\n\r&g_Char = ");
 618:	e59f009c 	ldr	r0, [pc, #156]	; 6bc <main+0xd0>
 61c:	ebffff35 	bl	2f8 <puts>
	printHex(&g_Char);
 620:	e59f3098 	ldr	r3, [pc, #152]	; 6c0 <main+0xd4>
 624:	e1a00003 	mov	r0, r3
 628:	ebffff45 	bl	344 <printHex>
	puts("\n\r");
 62c:	e59f0084 	ldr	r0, [pc, #132]	; 6b8 <main+0xcc>
 630:	ebffff30 	bl	2f8 <puts>

	
	puts("\n\r&g_Char3 = ");
 634:	e59f0088 	ldr	r0, [pc, #136]	; 6c4 <main+0xd8>
 638:	ebffff2e 	bl	2f8 <puts>
	printHex(&g_Char3);
 63c:	e59f3084 	ldr	r3, [pc, #132]	; 6c8 <main+0xdc>
 640:	e1a00003 	mov	r0, r3
 644:	ebffff3e 	bl	344 <printHex>
	puts("\n\r");
 648:	e59f0068 	ldr	r0, [pc, #104]	; 6b8 <main+0xcc>
 64c:	ebffff29 	bl	2f8 <puts>

		puts("\n\rg_Char3 = ");
		printHex(g_Char3);
		puts("\n\r");
#endif
		putchar(g_Char);
 650:	e59f3068 	ldr	r3, [pc, #104]	; 6c0 <main+0xd4>
 654:	e5d33000 	ldrb	r3, [r3]
 658:	e1a00003 	mov	r0, r3
 65c:	ebffff03 	bl	270 <putchar>
		g_Char++;
 660:	e59f3058 	ldr	r3, [pc, #88]	; 6c0 <main+0xd4>
 664:	e5d33000 	ldrb	r3, [r3]
 668:	e2833001 	add	r3, r3, #1	; 0x1
 66c:	e20330ff 	and	r3, r3, #255	; 0xff
 670:	e59f2048 	ldr	r2, [pc, #72]	; 6c0 <main+0xd4>
 674:	e5c23000 	strb	r3, [r2]

		putchar(g_Char3);
 678:	e59f3048 	ldr	r3, [pc, #72]	; 6c8 <main+0xdc>
 67c:	e5d33000 	ldrb	r3, [r3]
 680:	e1a00003 	mov	r0, r3
 684:	ebfffef9 	bl	270 <putchar>
		g_Char3++;
 688:	e59f3038 	ldr	r3, [pc, #56]	; 6c8 <main+0xdc>
 68c:	e5d33000 	ldrb	r3, [r3]
 690:	e2833001 	add	r3, r3, #1	; 0x1
 694:	e20330ff 	and	r3, r3, #255	; 0xff
 698:	e59f2028 	ldr	r2, [pc, #40]	; 6c8 <main+0xdc>
 69c:	e5c23000 	strb	r3, [r2]
		delay(1000000);
 6a0:	e3a0093d 	mov	r0, #999424	; 0xf4000
 6a4:	e2800d09 	add	r0, r0, #576	; 0x240
 6a8:	ebfffe87 	bl	cc <delay>
 6ac:	eaffffe7 	b	650 <main+0x64>
 6b0:	000006d4 	.word	0x000006d4
 6b4:	30000004 	.word	0x30000004
 6b8:	000006e0 	.word	0x000006e0
 6bc:	000006e4 	.word	0x000006e4
 6c0:	30000000 	.word	0x30000000
 6c4:	000006f4 	.word	0x000006f4
 6c8:	30000001 	.word	0x30000001
